
Project_Master.elf:     file format elf32-avr

Sections:
Idx Name          Size      VMA       LMA       File off  Algn
  0 .text         00000522  00000000  00000000  00000074  2**1
                  CONTENTS, ALLOC, LOAD, READONLY, CODE
  1 .data         0000000a  00800060  00000522  00000596  2**0
                  CONTENTS, ALLOC, LOAD, DATA
  2 .comment      00000030  00000000  00000000  000005a0  2**0
                  CONTENTS, READONLY
  3 .note.gnu.avr.deviceinfo 0000003c  00000000  00000000  000005d0  2**2
                  CONTENTS, READONLY
  4 .debug_aranges 00000158  00000000  00000000  0000060c  2**0
                  CONTENTS, READONLY, DEBUGGING
  5 .debug_info   0000157e  00000000  00000000  00000764  2**0
                  CONTENTS, READONLY, DEBUGGING
  6 .debug_abbrev 00000a5c  00000000  00000000  00001ce2  2**0
                  CONTENTS, READONLY, DEBUGGING
  7 .debug_line   00000cb0  00000000  00000000  0000273e  2**0
                  CONTENTS, READONLY, DEBUGGING
  8 .debug_frame  0000026c  00000000  00000000  000033f0  2**2
                  CONTENTS, READONLY, DEBUGGING
  9 .debug_str    0000058f  00000000  00000000  0000365c  2**0
                  CONTENTS, READONLY, DEBUGGING
 10 .debug_loc    00000783  00000000  00000000  00003beb  2**0
                  CONTENTS, READONLY, DEBUGGING
 11 .debug_ranges 00000108  00000000  00000000  0000436e  2**0
                  CONTENTS, READONLY, DEBUGGING

Disassembly of section .text:

00000000 <__vectors>:
   0:	0c 94 2a 00 	jmp	0x54	; 0x54 <__ctors_end>
   4:	0c 94 3f 00 	jmp	0x7e	; 0x7e <__bad_interrupt>
   8:	0c 94 3f 00 	jmp	0x7e	; 0x7e <__bad_interrupt>
   c:	0c 94 3f 00 	jmp	0x7e	; 0x7e <__bad_interrupt>
  10:	0c 94 3f 00 	jmp	0x7e	; 0x7e <__bad_interrupt>
  14:	0c 94 3f 00 	jmp	0x7e	; 0x7e <__bad_interrupt>
  18:	0c 94 3f 00 	jmp	0x7e	; 0x7e <__bad_interrupt>
  1c:	0c 94 3f 00 	jmp	0x7e	; 0x7e <__bad_interrupt>
  20:	0c 94 3f 00 	jmp	0x7e	; 0x7e <__bad_interrupt>
  24:	0c 94 3f 00 	jmp	0x7e	; 0x7e <__bad_interrupt>
  28:	0c 94 3f 00 	jmp	0x7e	; 0x7e <__bad_interrupt>
  2c:	0c 94 3f 00 	jmp	0x7e	; 0x7e <__bad_interrupt>
  30:	0c 94 3f 00 	jmp	0x7e	; 0x7e <__bad_interrupt>
  34:	0c 94 3f 00 	jmp	0x7e	; 0x7e <__bad_interrupt>
  38:	0c 94 3f 00 	jmp	0x7e	; 0x7e <__bad_interrupt>
  3c:	0c 94 3f 00 	jmp	0x7e	; 0x7e <__bad_interrupt>
  40:	0c 94 3f 00 	jmp	0x7e	; 0x7e <__bad_interrupt>
  44:	0c 94 3f 00 	jmp	0x7e	; 0x7e <__bad_interrupt>
  48:	0c 94 3f 00 	jmp	0x7e	; 0x7e <__bad_interrupt>
  4c:	0c 94 3f 00 	jmp	0x7e	; 0x7e <__bad_interrupt>
  50:	0c 94 3f 00 	jmp	0x7e	; 0x7e <__bad_interrupt>

00000054 <__ctors_end>:
  54:	11 24       	eor	r1, r1
  56:	1f be       	out	0x3f, r1	; 63
  58:	cf e5       	ldi	r28, 0x5F	; 95
  5a:	d8 e0       	ldi	r29, 0x08	; 8
  5c:	de bf       	out	0x3e, r29	; 62
  5e:	cd bf       	out	0x3d, r28	; 61

00000060 <__do_copy_data>:
  60:	10 e0       	ldi	r17, 0x00	; 0
  62:	a0 e6       	ldi	r26, 0x60	; 96
  64:	b0 e0       	ldi	r27, 0x00	; 0
  66:	e2 e2       	ldi	r30, 0x22	; 34
  68:	f5 e0       	ldi	r31, 0x05	; 5
  6a:	02 c0       	rjmp	.+4      	; 0x70 <__do_copy_data+0x10>
  6c:	05 90       	lpm	r0, Z+
  6e:	0d 92       	st	X+, r0
  70:	aa 36       	cpi	r26, 0x6A	; 106
  72:	b1 07       	cpc	r27, r17
  74:	d9 f7       	brne	.-10     	; 0x6c <__do_copy_data+0xc>
  76:	0e 94 0e 02 	call	0x41c	; 0x41c <main>
  7a:	0c 94 8f 02 	jmp	0x51e	; 0x51e <_exit>

0000007e <__bad_interrupt>:
  7e:	0c 94 00 00 	jmp	0	; 0x0 <__vectors>

00000082 <DIO_SetPin_Direction>:
#include "DIO.h"
/*Function Implementations*/
/*Functions for PINS*/
void DIO_SetPin_Direction(Uint8t port, Uint8t pin, Uint8t direction)/*Define Direction for pin(Ip/Op)*/
{
	switch(direction)
  82:	44 23       	and	r20, r20
  84:	19 f0       	breq	.+6      	; 0x8c <DIO_SetPin_Direction+0xa>
  86:	41 30       	cpi	r20, 0x01	; 1
  88:	c9 f1       	breq	.+114    	; 0xfc <DIO_SetPin_Direction+0x7a>
  8a:	08 95       	ret
	{
		case DIO_PIN_INPUT:
		switch(port)
  8c:	81 30       	cpi	r24, 0x01	; 1
  8e:	91 f0       	breq	.+36     	; 0xb4 <DIO_SetPin_Direction+0x32>
  90:	28 f0       	brcs	.+10     	; 0x9c <DIO_SetPin_Direction+0x1a>
  92:	82 30       	cpi	r24, 0x02	; 2
  94:	d9 f0       	breq	.+54     	; 0xcc <DIO_SetPin_Direction+0x4a>
  96:	83 30       	cpi	r24, 0x03	; 3
  98:	29 f1       	breq	.+74     	; 0xe4 <DIO_SetPin_Direction+0x62>
  9a:	08 95       	ret
		{
			case DIO_PORTA:
			CLR_BIT(DDRA, pin);
  9c:	2a b3       	in	r18, 0x1a	; 26
  9e:	81 e0       	ldi	r24, 0x01	; 1
  a0:	90 e0       	ldi	r25, 0x00	; 0
  a2:	02 c0       	rjmp	.+4      	; 0xa8 <DIO_SetPin_Direction+0x26>
  a4:	88 0f       	add	r24, r24
  a6:	99 1f       	adc	r25, r25
  a8:	6a 95       	dec	r22
  aa:	e2 f7       	brpl	.-8      	; 0xa4 <DIO_SetPin_Direction+0x22>
  ac:	80 95       	com	r24
  ae:	82 23       	and	r24, r18
  b0:	8a bb       	out	0x1a, r24	; 26
			break;
  b2:	08 95       	ret
			case DIO_PORTB:
			CLR_BIT(DDRB, pin);
  b4:	27 b3       	in	r18, 0x17	; 23
  b6:	81 e0       	ldi	r24, 0x01	; 1
  b8:	90 e0       	ldi	r25, 0x00	; 0
  ba:	02 c0       	rjmp	.+4      	; 0xc0 <DIO_SetPin_Direction+0x3e>
  bc:	88 0f       	add	r24, r24
  be:	99 1f       	adc	r25, r25
  c0:	6a 95       	dec	r22
  c2:	e2 f7       	brpl	.-8      	; 0xbc <DIO_SetPin_Direction+0x3a>
  c4:	80 95       	com	r24
  c6:	82 23       	and	r24, r18
  c8:	87 bb       	out	0x17, r24	; 23
			break;
  ca:	08 95       	ret
			case DIO_PORTC:
			CLR_BIT(DDRC, pin);
  cc:	24 b3       	in	r18, 0x14	; 20
  ce:	81 e0       	ldi	r24, 0x01	; 1
  d0:	90 e0       	ldi	r25, 0x00	; 0
  d2:	02 c0       	rjmp	.+4      	; 0xd8 <DIO_SetPin_Direction+0x56>
  d4:	88 0f       	add	r24, r24
  d6:	99 1f       	adc	r25, r25
  d8:	6a 95       	dec	r22
  da:	e2 f7       	brpl	.-8      	; 0xd4 <DIO_SetPin_Direction+0x52>
  dc:	80 95       	com	r24
  de:	82 23       	and	r24, r18
  e0:	84 bb       	out	0x14, r24	; 20
			break;
  e2:	08 95       	ret
			case DIO_PORTD:
			CLR_BIT(DDRD, pin);
  e4:	21 b3       	in	r18, 0x11	; 17
  e6:	81 e0       	ldi	r24, 0x01	; 1
  e8:	90 e0       	ldi	r25, 0x00	; 0
  ea:	02 c0       	rjmp	.+4      	; 0xf0 <DIO_SetPin_Direction+0x6e>
  ec:	88 0f       	add	r24, r24
  ee:	99 1f       	adc	r25, r25
  f0:	6a 95       	dec	r22
  f2:	e2 f7       	brpl	.-8      	; 0xec <DIO_SetPin_Direction+0x6a>
  f4:	80 95       	com	r24
  f6:	82 23       	and	r24, r18
  f8:	81 bb       	out	0x11, r24	; 17
			break;
  fa:	08 95       	ret
		}
		break;
		case DIO_PIN_OUTPUT:
		switch(port)
  fc:	81 30       	cpi	r24, 0x01	; 1
  fe:	89 f0       	breq	.+34     	; 0x122 <DIO_SetPin_Direction+0xa0>
 100:	28 f0       	brcs	.+10     	; 0x10c <DIO_SetPin_Direction+0x8a>
 102:	82 30       	cpi	r24, 0x02	; 2
 104:	c9 f0       	breq	.+50     	; 0x138 <DIO_SetPin_Direction+0xb6>
 106:	83 30       	cpi	r24, 0x03	; 3
 108:	11 f1       	breq	.+68     	; 0x14e <DIO_SetPin_Direction+0xcc>
 10a:	08 95       	ret
		{
			case DIO_PORTA:
			SET_BIT(DDRA, pin);
 10c:	2a b3       	in	r18, 0x1a	; 26
 10e:	81 e0       	ldi	r24, 0x01	; 1
 110:	90 e0       	ldi	r25, 0x00	; 0
 112:	02 c0       	rjmp	.+4      	; 0x118 <DIO_SetPin_Direction+0x96>
 114:	88 0f       	add	r24, r24
 116:	99 1f       	adc	r25, r25
 118:	6a 95       	dec	r22
 11a:	e2 f7       	brpl	.-8      	; 0x114 <DIO_SetPin_Direction+0x92>
 11c:	82 2b       	or	r24, r18
 11e:	8a bb       	out	0x1a, r24	; 26
			break;
 120:	08 95       	ret
			case DIO_PORTB:
			SET_BIT(DDRB, pin);
 122:	27 b3       	in	r18, 0x17	; 23
 124:	81 e0       	ldi	r24, 0x01	; 1
 126:	90 e0       	ldi	r25, 0x00	; 0
 128:	02 c0       	rjmp	.+4      	; 0x12e <DIO_SetPin_Direction+0xac>
 12a:	88 0f       	add	r24, r24
 12c:	99 1f       	adc	r25, r25
 12e:	6a 95       	dec	r22
 130:	e2 f7       	brpl	.-8      	; 0x12a <DIO_SetPin_Direction+0xa8>
 132:	82 2b       	or	r24, r18
 134:	87 bb       	out	0x17, r24	; 23
			break;
 136:	08 95       	ret
			case DIO_PORTC:
			SET_BIT(DDRC, pin);
 138:	24 b3       	in	r18, 0x14	; 20
 13a:	81 e0       	ldi	r24, 0x01	; 1
 13c:	90 e0       	ldi	r25, 0x00	; 0
 13e:	02 c0       	rjmp	.+4      	; 0x144 <DIO_SetPin_Direction+0xc2>
 140:	88 0f       	add	r24, r24
 142:	99 1f       	adc	r25, r25
 144:	6a 95       	dec	r22
 146:	e2 f7       	brpl	.-8      	; 0x140 <DIO_SetPin_Direction+0xbe>
 148:	82 2b       	or	r24, r18
 14a:	84 bb       	out	0x14, r24	; 20
			break;
 14c:	08 95       	ret
			case DIO_PORTD:
			SET_BIT(DDRD, pin);
 14e:	21 b3       	in	r18, 0x11	; 17
 150:	81 e0       	ldi	r24, 0x01	; 1
 152:	90 e0       	ldi	r25, 0x00	; 0
 154:	02 c0       	rjmp	.+4      	; 0x15a <DIO_SetPin_Direction+0xd8>
 156:	88 0f       	add	r24, r24
 158:	99 1f       	adc	r25, r25
 15a:	6a 95       	dec	r22
 15c:	e2 f7       	brpl	.-8      	; 0x156 <DIO_SetPin_Direction+0xd4>
 15e:	82 2b       	or	r24, r18
 160:	81 bb       	out	0x11, r24	; 17
 162:	08 95       	ret

00000164 <DIO_SetPin_Value>:
		break;
	}
}
void DIO_SetPin_Value(Uint8t port, Uint8t pin, Uint8t value)/*Output Mode*/
{
	switch(value)
 164:	44 23       	and	r20, r20
 166:	19 f0       	breq	.+6      	; 0x16e <DIO_SetPin_Value+0xa>
 168:	41 30       	cpi	r20, 0x01	; 1
 16a:	c9 f1       	breq	.+114    	; 0x1de <DIO_SetPin_Value+0x7a>
 16c:	08 95       	ret
	{
		case DIO_PIN_LOW:
		switch (port)
 16e:	81 30       	cpi	r24, 0x01	; 1
 170:	91 f0       	breq	.+36     	; 0x196 <DIO_SetPin_Value+0x32>
 172:	28 f0       	brcs	.+10     	; 0x17e <DIO_SetPin_Value+0x1a>
 174:	82 30       	cpi	r24, 0x02	; 2
 176:	d9 f0       	breq	.+54     	; 0x1ae <DIO_SetPin_Value+0x4a>
 178:	83 30       	cpi	r24, 0x03	; 3
 17a:	29 f1       	breq	.+74     	; 0x1c6 <DIO_SetPin_Value+0x62>
 17c:	08 95       	ret
		{
			case DIO_PORTA:
			CLR_BIT(PORTA, pin);
 17e:	2b b3       	in	r18, 0x1b	; 27
 180:	81 e0       	ldi	r24, 0x01	; 1
 182:	90 e0       	ldi	r25, 0x00	; 0
 184:	02 c0       	rjmp	.+4      	; 0x18a <DIO_SetPin_Value+0x26>
 186:	88 0f       	add	r24, r24
 188:	99 1f       	adc	r25, r25
 18a:	6a 95       	dec	r22
 18c:	e2 f7       	brpl	.-8      	; 0x186 <DIO_SetPin_Value+0x22>
 18e:	80 95       	com	r24
 190:	82 23       	and	r24, r18
 192:	8b bb       	out	0x1b, r24	; 27
			break;
 194:	08 95       	ret
			case DIO_PORTB:
			CLR_BIT(PORTB, pin);
 196:	28 b3       	in	r18, 0x18	; 24
 198:	81 e0       	ldi	r24, 0x01	; 1
 19a:	90 e0       	ldi	r25, 0x00	; 0
 19c:	02 c0       	rjmp	.+4      	; 0x1a2 <DIO_SetPin_Value+0x3e>
 19e:	88 0f       	add	r24, r24
 1a0:	99 1f       	adc	r25, r25
 1a2:	6a 95       	dec	r22
 1a4:	e2 f7       	brpl	.-8      	; 0x19e <DIO_SetPin_Value+0x3a>
 1a6:	80 95       	com	r24
 1a8:	82 23       	and	r24, r18
 1aa:	88 bb       	out	0x18, r24	; 24
			break;
 1ac:	08 95       	ret
			case DIO_PORTC:
			CLR_BIT(PORTC, pin);
 1ae:	25 b3       	in	r18, 0x15	; 21
 1b0:	81 e0       	ldi	r24, 0x01	; 1
 1b2:	90 e0       	ldi	r25, 0x00	; 0
 1b4:	02 c0       	rjmp	.+4      	; 0x1ba <DIO_SetPin_Value+0x56>
 1b6:	88 0f       	add	r24, r24
 1b8:	99 1f       	adc	r25, r25
 1ba:	6a 95       	dec	r22
 1bc:	e2 f7       	brpl	.-8      	; 0x1b6 <DIO_SetPin_Value+0x52>
 1be:	80 95       	com	r24
 1c0:	82 23       	and	r24, r18
 1c2:	85 bb       	out	0x15, r24	; 21
			break;
 1c4:	08 95       	ret
			case DIO_PORTD:
			CLR_BIT(PORTD, pin);
 1c6:	22 b3       	in	r18, 0x12	; 18
 1c8:	81 e0       	ldi	r24, 0x01	; 1
 1ca:	90 e0       	ldi	r25, 0x00	; 0
 1cc:	02 c0       	rjmp	.+4      	; 0x1d2 <DIO_SetPin_Value+0x6e>
 1ce:	88 0f       	add	r24, r24
 1d0:	99 1f       	adc	r25, r25
 1d2:	6a 95       	dec	r22
 1d4:	e2 f7       	brpl	.-8      	; 0x1ce <DIO_SetPin_Value+0x6a>
 1d6:	80 95       	com	r24
 1d8:	82 23       	and	r24, r18
 1da:	82 bb       	out	0x12, r24	; 18
			break;
 1dc:	08 95       	ret
		}
		break;
		case DIO_PIN_HIGH:
		switch (port)
 1de:	81 30       	cpi	r24, 0x01	; 1
 1e0:	89 f0       	breq	.+34     	; 0x204 <DIO_SetPin_Value+0xa0>
 1e2:	28 f0       	brcs	.+10     	; 0x1ee <DIO_SetPin_Value+0x8a>
 1e4:	82 30       	cpi	r24, 0x02	; 2
 1e6:	c9 f0       	breq	.+50     	; 0x21a <DIO_SetPin_Value+0xb6>
 1e8:	83 30       	cpi	r24, 0x03	; 3
 1ea:	11 f1       	breq	.+68     	; 0x230 <DIO_SetPin_Value+0xcc>
 1ec:	08 95       	ret
		{
			case DIO_PORTA:
			SET_BIT(PORTA, pin);
 1ee:	2b b3       	in	r18, 0x1b	; 27
 1f0:	81 e0       	ldi	r24, 0x01	; 1
 1f2:	90 e0       	ldi	r25, 0x00	; 0
 1f4:	02 c0       	rjmp	.+4      	; 0x1fa <DIO_SetPin_Value+0x96>
 1f6:	88 0f       	add	r24, r24
 1f8:	99 1f       	adc	r25, r25
 1fa:	6a 95       	dec	r22
 1fc:	e2 f7       	brpl	.-8      	; 0x1f6 <DIO_SetPin_Value+0x92>
 1fe:	82 2b       	or	r24, r18
 200:	8b bb       	out	0x1b, r24	; 27
			break;
 202:	08 95       	ret
			case DIO_PORTB:
			SET_BIT(PORTB, pin);
 204:	28 b3       	in	r18, 0x18	; 24
 206:	81 e0       	ldi	r24, 0x01	; 1
 208:	90 e0       	ldi	r25, 0x00	; 0
 20a:	02 c0       	rjmp	.+4      	; 0x210 <DIO_SetPin_Value+0xac>
 20c:	88 0f       	add	r24, r24
 20e:	99 1f       	adc	r25, r25
 210:	6a 95       	dec	r22
 212:	e2 f7       	brpl	.-8      	; 0x20c <DIO_SetPin_Value+0xa8>
 214:	82 2b       	or	r24, r18
 216:	88 bb       	out	0x18, r24	; 24
			break;
 218:	08 95       	ret
			case DIO_PORTC:
			SET_BIT(PORTC, pin);
 21a:	25 b3       	in	r18, 0x15	; 21
 21c:	81 e0       	ldi	r24, 0x01	; 1
 21e:	90 e0       	ldi	r25, 0x00	; 0
 220:	02 c0       	rjmp	.+4      	; 0x226 <DIO_SetPin_Value+0xc2>
 222:	88 0f       	add	r24, r24
 224:	99 1f       	adc	r25, r25
 226:	6a 95       	dec	r22
 228:	e2 f7       	brpl	.-8      	; 0x222 <DIO_SetPin_Value+0xbe>
 22a:	82 2b       	or	r24, r18
 22c:	85 bb       	out	0x15, r24	; 21
			break;
 22e:	08 95       	ret
			case DIO_PORTD:
			SET_BIT(PORTD, pin);
 230:	22 b3       	in	r18, 0x12	; 18
 232:	81 e0       	ldi	r24, 0x01	; 1
 234:	90 e0       	ldi	r25, 0x00	; 0
 236:	02 c0       	rjmp	.+4      	; 0x23c <DIO_SetPin_Value+0xd8>
 238:	88 0f       	add	r24, r24
 23a:	99 1f       	adc	r25, r25
 23c:	6a 95       	dec	r22
 23e:	e2 f7       	brpl	.-8      	; 0x238 <DIO_SetPin_Value+0xd4>
 240:	82 2b       	or	r24, r18
 242:	82 bb       	out	0x12, r24	; 18
 244:	08 95       	ret

00000246 <LCD_Write_Command>:
	#else
	#warning "Wrong Mode"
	#endif
}
void LCD_Write_Command(Uint8t command)
{
 246:	cf 93       	push	r28
 248:	c8 2f       	mov	r28, r24
	/*Control of LCD*/
	/*RS is Logic low to write inside control register*/
	DIO_SetPin_Value(LCD_4BIT_CMD_PORT, LCD_RS, DIO_PIN_LOW);
 24a:	40 e0       	ldi	r20, 0x00	; 0
 24c:	61 e0       	ldi	r22, 0x01	; 1
 24e:	81 e0       	ldi	r24, 0x01	; 1
 250:	0e 94 b2 00 	call	0x164	; 0x164 <DIO_SetPin_Value>
	/*RW is logic low to write on LCD*/
	DIO_SetPin_Value(LCD_4BIT_CMD_PORT, LCD_RW, DIO_PIN_LOW);
 254:	40 e0       	ldi	r20, 0x00	; 0
 256:	62 e0       	ldi	r22, 0x02	; 2
 258:	81 e0       	ldi	r24, 0x01	; 1
 25a:	0e 94 b2 00 	call	0x164	; 0x164 <DIO_SetPin_Value>
	/*be sure that enable low before send command*/
	DIO_SetPin_Value(LCD_4BIT_CMD_PORT, LCD_EN, DIO_PIN_LOW);
 25e:	40 e0       	ldi	r20, 0x00	; 0
 260:	63 e0       	ldi	r22, 0x03	; 3
 262:	81 e0       	ldi	r24, 0x01	; 1
 264:	0e 94 b2 00 	call	0x164	; 0x164 <DIO_SetPin_Value>
	/*Write High Nipple of the command*/
	//PORTA = Get_HIGH_Nibble(command) | (PORTA & 0x0F);
	PORTA = (command & 0xF0) | (PORTA & 0x0F);
 268:	8b b3       	in	r24, 0x1b	; 27
 26a:	9c 2f       	mov	r25, r28
 26c:	90 7f       	andi	r25, 0xF0	; 240
 26e:	8f 70       	andi	r24, 0x0F	; 15
 270:	89 2b       	or	r24, r25
 272:	8b bb       	out	0x1b, r24	; 27
	/*Send High Pulse by using Enable*/
	DIO_SetPin_Value(LCD_4BIT_CMD_PORT, LCD_EN, DIO_PIN_HIGH);
 274:	41 e0       	ldi	r20, 0x01	; 1
 276:	63 e0       	ldi	r22, 0x03	; 3
 278:	81 e0       	ldi	r24, 0x01	; 1
 27a:	0e 94 b2 00 	call	0x164	; 0x164 <DIO_SetPin_Value>
	#else
		//round up by default
		__ticks_dc = (uint32_t)(ceil(fabs(__tmp)));
	#endif

	__builtin_avr_delay_cycles(__ticks_dc);
 27e:	87 ee       	ldi	r24, 0xE7	; 231
 280:	93 e0       	ldi	r25, 0x03	; 3
 282:	01 97       	sbiw	r24, 0x01	; 1
 284:	f1 f7       	brne	.-4      	; 0x282 <LCD_Write_Command+0x3c>
 286:	00 c0       	rjmp	.+0      	; 0x288 <LCD_Write_Command+0x42>
 288:	00 00       	nop
	_delay_ms(1);/*Delay for only 1 millisecond*/
	DIO_SetPin_Value(LCD_4BIT_CMD_PORT, LCD_EN, DIO_PIN_LOW);
 28a:	40 e0       	ldi	r20, 0x00	; 0
 28c:	63 e0       	ldi	r22, 0x03	; 3
 28e:	81 e0       	ldi	r24, 0x01	; 1
 290:	0e 94 b2 00 	call	0x164	; 0x164 <DIO_SetPin_Value>
	
	/*Write Low Nipple of the command*/
	//PORTA = Get_LOW_Nibble(command) | (PORTA & 0x0F);
	PORTA = (command  << 4) | (PORTA & 0x0F);
 294:	2b b3       	in	r18, 0x1b	; 27
 296:	30 e1       	ldi	r19, 0x10	; 16
 298:	c3 9f       	mul	r28, r19
 29a:	c0 01       	movw	r24, r0
 29c:	11 24       	eor	r1, r1
 29e:	92 2f       	mov	r25, r18
 2a0:	9f 70       	andi	r25, 0x0F	; 15
 2a2:	89 2b       	or	r24, r25
 2a4:	8b bb       	out	0x1b, r24	; 27
	/*Send High Pulse by using Enable*/
	DIO_SetPin_Value(LCD_4BIT_CMD_PORT, LCD_EN, DIO_PIN_HIGH);
 2a6:	41 e0       	ldi	r20, 0x01	; 1
 2a8:	63 e0       	ldi	r22, 0x03	; 3
 2aa:	81 e0       	ldi	r24, 0x01	; 1
 2ac:	0e 94 b2 00 	call	0x164	; 0x164 <DIO_SetPin_Value>
 2b0:	87 ee       	ldi	r24, 0xE7	; 231
 2b2:	93 e0       	ldi	r25, 0x03	; 3
 2b4:	01 97       	sbiw	r24, 0x01	; 1
 2b6:	f1 f7       	brne	.-4      	; 0x2b4 <LCD_Write_Command+0x6e>
 2b8:	00 c0       	rjmp	.+0      	; 0x2ba <LCD_Write_Command+0x74>
 2ba:	00 00       	nop
	_delay_ms(1);/*Delay for only 1 millisecond*/
	DIO_SetPin_Value(LCD_4BIT_CMD_PORT, LCD_EN, DIO_PIN_LOW);
 2bc:	40 e0       	ldi	r20, 0x00	; 0
 2be:	63 e0       	ldi	r22, 0x03	; 3
 2c0:	81 e0       	ldi	r24, 0x01	; 1
 2c2:	0e 94 b2 00 	call	0x164	; 0x164 <DIO_SetPin_Value>
 2c6:	87 e8       	ldi	r24, 0x87	; 135
 2c8:	93 e1       	ldi	r25, 0x13	; 19
 2ca:	01 97       	sbiw	r24, 0x01	; 1
 2cc:	f1 f7       	brne	.-4      	; 0x2ca <LCD_Write_Command+0x84>
 2ce:	00 c0       	rjmp	.+0      	; 0x2d0 <LCD_Write_Command+0x8a>
 2d0:	00 00       	nop
	_delay_ms(5);
}
 2d2:	cf 91       	pop	r28
 2d4:	08 95       	ret

000002d6 <LCD_Init>:
#include "LCD.h"

void LCD_Init(void)
{
	#if LCD_Mode == 4
	DIO_SetPin_Direction(LCD_4BIT_CMD_PORT, LCD_RS, LCD_OUTPUT);
 2d6:	41 e0       	ldi	r20, 0x01	; 1
 2d8:	61 e0       	ldi	r22, 0x01	; 1
 2da:	81 e0       	ldi	r24, 0x01	; 1
 2dc:	0e 94 41 00 	call	0x82	; 0x82 <DIO_SetPin_Direction>
	DIO_SetPin_Direction(LCD_4BIT_CMD_PORT, LCD_RW, LCD_OUTPUT);
 2e0:	41 e0       	ldi	r20, 0x01	; 1
 2e2:	62 e0       	ldi	r22, 0x02	; 2
 2e4:	81 e0       	ldi	r24, 0x01	; 1
 2e6:	0e 94 41 00 	call	0x82	; 0x82 <DIO_SetPin_Direction>
	DIO_SetPin_Direction(LCD_4BIT_CMD_PORT, LCD_EN, LCD_OUTPUT);
 2ea:	41 e0       	ldi	r20, 0x01	; 1
 2ec:	63 e0       	ldi	r22, 0x03	; 3
 2ee:	81 e0       	ldi	r24, 0x01	; 1
 2f0:	0e 94 41 00 	call	0x82	; 0x82 <DIO_SetPin_Direction>
	
	DIO_SetPin_Direction(LCD_4BIT_DTA_PORT, LCD_DTA4, LCD_OUTPUT);
 2f4:	41 e0       	ldi	r20, 0x01	; 1
 2f6:	64 e0       	ldi	r22, 0x04	; 4
 2f8:	80 e0       	ldi	r24, 0x00	; 0
 2fa:	0e 94 41 00 	call	0x82	; 0x82 <DIO_SetPin_Direction>
	DIO_SetPin_Direction(LCD_4BIT_DTA_PORT, LCD_DTA5, LCD_OUTPUT);
 2fe:	41 e0       	ldi	r20, 0x01	; 1
 300:	65 e0       	ldi	r22, 0x05	; 5
 302:	80 e0       	ldi	r24, 0x00	; 0
 304:	0e 94 41 00 	call	0x82	; 0x82 <DIO_SetPin_Direction>
	DIO_SetPin_Direction(LCD_4BIT_DTA_PORT, LCD_DTA6, LCD_OUTPUT);
 308:	41 e0       	ldi	r20, 0x01	; 1
 30a:	66 e0       	ldi	r22, 0x06	; 6
 30c:	80 e0       	ldi	r24, 0x00	; 0
 30e:	0e 94 41 00 	call	0x82	; 0x82 <DIO_SetPin_Direction>
	DIO_SetPin_Direction(LCD_4BIT_DTA_PORT, LCD_DTA7, LCD_OUTPUT);
 312:	41 e0       	ldi	r20, 0x01	; 1
 314:	67 e0       	ldi	r22, 0x07	; 7
 316:	80 e0       	ldi	r24, 0x00	; 0
 318:	0e 94 41 00 	call	0x82	; 0x82 <DIO_SetPin_Direction>
 31c:	2f e7       	ldi	r18, 0x7F	; 127
 31e:	88 e3       	ldi	r24, 0x38	; 56
 320:	91 e0       	ldi	r25, 0x01	; 1
 322:	21 50       	subi	r18, 0x01	; 1
 324:	80 40       	sbci	r24, 0x00	; 0
 326:	90 40       	sbci	r25, 0x00	; 0
 328:	e1 f7       	brne	.-8      	; 0x322 <LCD_Init+0x4c>
 32a:	00 c0       	rjmp	.+0      	; 0x32c <LCD_Init+0x56>
 32c:	00 00       	nop
	_delay_ms(100);/*LCD MC is slowest than ATMEGA32 MC*/
	LCD_Write_Command(0x02);
 32e:	82 e0       	ldi	r24, 0x02	; 2
 330:	0e 94 23 01 	call	0x246	; 0x246 <LCD_Write_Command>
	LCD_Write_Command(0x33);
 334:	83 e3       	ldi	r24, 0x33	; 51
 336:	0e 94 23 01 	call	0x246	; 0x246 <LCD_Write_Command>
	LCD_Write_Command(0x32);
 33a:	82 e3       	ldi	r24, 0x32	; 50
 33c:	0e 94 23 01 	call	0x246	; 0x246 <LCD_Write_Command>
	LCD_Write_Command(0x28);
 340:	88 e2       	ldi	r24, 0x28	; 40
 342:	0e 94 23 01 	call	0x246	; 0x246 <LCD_Write_Command>
	LCD_Write_Command(0x0C);
 346:	8c e0       	ldi	r24, 0x0C	; 12
 348:	0e 94 23 01 	call	0x246	; 0x246 <LCD_Write_Command>
	LCD_Write_Command(0x01);
 34c:	81 e0       	ldi	r24, 0x01	; 1
 34e:	0e 94 23 01 	call	0x246	; 0x246 <LCD_Write_Command>
	LCD_Write_Command(0x06);
 352:	86 e0       	ldi	r24, 0x06	; 6
 354:	0e 94 23 01 	call	0x246	; 0x246 <LCD_Write_Command>
 358:	08 95       	ret

0000035a <LCD_Write_Data>:
	_delay_ms(1);/*Delay for only 1 millisecond*/
	DIO_SetPin_Value(LCD_4BIT_CMD_PORT, LCD_EN, DIO_PIN_LOW);
	_delay_ms(5);
}
void LCD_Write_Data(Uint8t data)
{
 35a:	cf 93       	push	r28
 35c:	c8 2f       	mov	r28, r24
	/*Control of LCD*/
	/*RS is Logic low to write inside control register*/
	DIO_SetPin_Value(LCD_4BIT_CMD_PORT, LCD_RS, DIO_PIN_HIGH);
 35e:	41 e0       	ldi	r20, 0x01	; 1
 360:	61 e0       	ldi	r22, 0x01	; 1
 362:	81 e0       	ldi	r24, 0x01	; 1
 364:	0e 94 b2 00 	call	0x164	; 0x164 <DIO_SetPin_Value>
	/*RW is logic low to write on LCD*/
	DIO_SetPin_Value(LCD_4BIT_CMD_PORT, LCD_RW, DIO_PIN_LOW);
 368:	40 e0       	ldi	r20, 0x00	; 0
 36a:	62 e0       	ldi	r22, 0x02	; 2
 36c:	81 e0       	ldi	r24, 0x01	; 1
 36e:	0e 94 b2 00 	call	0x164	; 0x164 <DIO_SetPin_Value>
	/*be sure that enable low before send command*/
	DIO_SetPin_Value(LCD_4BIT_CMD_PORT, LCD_EN, DIO_PIN_LOW);
 372:	40 e0       	ldi	r20, 0x00	; 0
 374:	63 e0       	ldi	r22, 0x03	; 3
 376:	81 e0       	ldi	r24, 0x01	; 1
 378:	0e 94 b2 00 	call	0x164	; 0x164 <DIO_SetPin_Value>
	/*Write High Nipple of the command*/
	//PORTA = Get_HIGH_Nibble(data) | (PORTA & 0x0F);
	PORTA = (data & 0xF0) | (PORTA & 0x0F);
 37c:	8b b3       	in	r24, 0x1b	; 27
 37e:	9c 2f       	mov	r25, r28
 380:	90 7f       	andi	r25, 0xF0	; 240
 382:	8f 70       	andi	r24, 0x0F	; 15
 384:	89 2b       	or	r24, r25
 386:	8b bb       	out	0x1b, r24	; 27
	/*Send High Pulse by using Enable*/
	DIO_SetPin_Value(LCD_4BIT_CMD_PORT, LCD_EN, DIO_PIN_HIGH);
 388:	41 e0       	ldi	r20, 0x01	; 1
 38a:	63 e0       	ldi	r22, 0x03	; 3
 38c:	81 e0       	ldi	r24, 0x01	; 1
 38e:	0e 94 b2 00 	call	0x164	; 0x164 <DIO_SetPin_Value>
 392:	87 ee       	ldi	r24, 0xE7	; 231
 394:	93 e0       	ldi	r25, 0x03	; 3
 396:	01 97       	sbiw	r24, 0x01	; 1
 398:	f1 f7       	brne	.-4      	; 0x396 <LCD_Write_Data+0x3c>
 39a:	00 c0       	rjmp	.+0      	; 0x39c <LCD_Write_Data+0x42>
 39c:	00 00       	nop
	_delay_ms(1);/*Delay for only 1 millisecond*/
	DIO_SetPin_Value(LCD_4BIT_CMD_PORT, LCD_EN, DIO_PIN_LOW);
 39e:	40 e0       	ldi	r20, 0x00	; 0
 3a0:	63 e0       	ldi	r22, 0x03	; 3
 3a2:	81 e0       	ldi	r24, 0x01	; 1
 3a4:	0e 94 b2 00 	call	0x164	; 0x164 <DIO_SetPin_Value>
	
	/*Write Low Nipple of the command*/
	//PORTA = Get_LOW_Nibble(data) | (PORTA & 0x0F);
	PORTA = (data << 4) | (PORTA & 0x0F);
 3a8:	2b b3       	in	r18, 0x1b	; 27
 3aa:	30 e1       	ldi	r19, 0x10	; 16
 3ac:	c3 9f       	mul	r28, r19
 3ae:	c0 01       	movw	r24, r0
 3b0:	11 24       	eor	r1, r1
 3b2:	92 2f       	mov	r25, r18
 3b4:	9f 70       	andi	r25, 0x0F	; 15
 3b6:	89 2b       	or	r24, r25
 3b8:	8b bb       	out	0x1b, r24	; 27
	//PORTA = (data & 0xF0) | (PORTA & 0x0F);
	/*Send High Pulse by using Enable*/
	DIO_SetPin_Value(LCD_4BIT_CMD_PORT, LCD_EN, DIO_PIN_HIGH);
 3ba:	41 e0       	ldi	r20, 0x01	; 1
 3bc:	63 e0       	ldi	r22, 0x03	; 3
 3be:	81 e0       	ldi	r24, 0x01	; 1
 3c0:	0e 94 b2 00 	call	0x164	; 0x164 <DIO_SetPin_Value>
 3c4:	87 ee       	ldi	r24, 0xE7	; 231
 3c6:	93 e0       	ldi	r25, 0x03	; 3
 3c8:	01 97       	sbiw	r24, 0x01	; 1
 3ca:	f1 f7       	brne	.-4      	; 0x3c8 <LCD_Write_Data+0x6e>
 3cc:	00 c0       	rjmp	.+0      	; 0x3ce <LCD_Write_Data+0x74>
 3ce:	00 00       	nop
	_delay_ms(1);/*Delay for only 1 millisecond*/
	DIO_SetPin_Value(LCD_4BIT_CMD_PORT, LCD_EN, DIO_PIN_LOW);
 3d0:	40 e0       	ldi	r20, 0x00	; 0
 3d2:	63 e0       	ldi	r22, 0x03	; 3
 3d4:	81 e0       	ldi	r24, 0x01	; 1
 3d6:	0e 94 b2 00 	call	0x164	; 0x164 <DIO_SetPin_Value>
 3da:	87 e8       	ldi	r24, 0x87	; 135
 3dc:	93 e1       	ldi	r25, 0x13	; 19
 3de:	01 97       	sbiw	r24, 0x01	; 1
 3e0:	f1 f7       	brne	.-4      	; 0x3de <LCD_Write_Data+0x84>
 3e2:	00 c0       	rjmp	.+0      	; 0x3e4 <LCD_Write_Data+0x8a>
 3e4:	00 00       	nop
	_delay_ms(5);
}
 3e6:	cf 91       	pop	r28
 3e8:	08 95       	ret

000003ea <LCD_Clear>:
void LCD_Clear(void)
{
	LCD_Write_Command(0x01);
 3ea:	81 e0       	ldi	r24, 0x01	; 1
 3ec:	0e 94 23 01 	call	0x246	; 0x246 <LCD_Write_Command>
 3f0:	08 95       	ret

000003f2 <LCD_Write_String>:
}
void LCD_Write_String(Uint8t* str)/**/
{
 3f2:	cf 93       	push	r28
 3f4:	df 93       	push	r29
 3f6:	ec 01       	movw	r28, r24
	while(*str != '\0')
 3f8:	88 81       	ld	r24, Y
 3fa:	88 23       	and	r24, r24
 3fc:	61 f0       	breq	.+24     	; 0x416 <__LOCK_REGION_LENGTH__+0x16>
 3fe:	87 ee       	ldi	r24, 0xE7	; 231
 400:	93 e0       	ldi	r25, 0x03	; 3
 402:	01 97       	sbiw	r24, 0x01	; 1
 404:	f1 f7       	brne	.-4      	; 0x402 <__LOCK_REGION_LENGTH__+0x2>
 406:	00 c0       	rjmp	.+0      	; 0x408 <__LOCK_REGION_LENGTH__+0x8>
 408:	00 00       	nop
	{
		_delay_ms(1);/*LCD MC,I swear is slowest than MC we have*/
		LCD_Write_Data(*str);
 40a:	89 91       	ld	r24, Y+
 40c:	0e 94 ad 01 	call	0x35a	; 0x35a <LCD_Write_Data>
{
	LCD_Write_Command(0x01);
}
void LCD_Write_String(Uint8t* str)/**/
{
	while(*str != '\0')
 410:	88 81       	ld	r24, Y
 412:	81 11       	cpse	r24, r1
 414:	f4 cf       	rjmp	.-24     	; 0x3fe <LCD_Write_String+0xc>
	{
		_delay_ms(1);/*LCD MC,I swear is slowest than MC we have*/
		LCD_Write_Data(*str);
		str++;
	}
}
 416:	df 91       	pop	r29
 418:	cf 91       	pop	r28
 41a:	08 95       	ret

0000041c <main>:

int main(void)
{
	Uint8t Data_Input = 0;

	LCD_Init();
 41c:	0e 94 6b 01 	call	0x2d6	; 0x2d6 <LCD_Init>
	UART_Init();
 420:	0e 94 83 02 	call	0x506	; 0x506 <UART_Init>
	SPI_INIT();
 424:	0e 94 76 02 	call	0x4ec	; 0x4ec <SPI_INIT>
	SPI_SLAVESELECT();
 428:	0e 94 81 02 	call	0x502	; 0x502 <SPI_SLAVESELECT>
	LCD_Clear();
 42c:	0e 94 f5 01 	call	0x3ea	; 0x3ea <LCD_Clear>
	LCD_Write_String((Uint8t*)"Hello .. ");
 430:	80 e6       	ldi	r24, 0x60	; 96
 432:	90 e0       	ldi	r25, 0x00	; 0
 434:	0e 94 f9 01 	call	0x3f2	; 0x3f2 <LCD_Write_String>
 438:	2f ef       	ldi	r18, 0xFF	; 255
 43a:	88 e0       	ldi	r24, 0x08	; 8
 43c:	9d e3       	ldi	r25, 0x3D	; 61
 43e:	21 50       	subi	r18, 0x01	; 1
 440:	80 40       	sbci	r24, 0x00	; 0
 442:	90 40       	sbci	r25, 0x00	; 0
 444:	e1 f7       	brne	.-8      	; 0x43e <main+0x22>
 446:	00 c0       	rjmp	.+0      	; 0x448 <main+0x2c>
 448:	00 00       	nop
	_delay_ms(5000);
	LCD_Clear();
 44a:	0e 94 f5 01 	call	0x3ea	; 0x3ea <LCD_Clear>
	DDRA |=0x0F;
 44e:	8a b3       	in	r24, 0x1a	; 26
 450:	8f 60       	ori	r24, 0x0F	; 15
 452:	8a bb       	out	0x1a, r24	; 26
	PORTA &=0xF0;
 454:	8b b3       	in	r24, 0x1b	; 27
 456:	80 7f       	andi	r24, 0xF0	; 240
 458:	8b bb       	out	0x1b, r24	; 27
		 			SPI_TRANSMIT(Data_Input);
		 			Data_Input = 0;		
					 break;
		case '3':
		         			LCD_Clear();
							 PORTA=0x0F;
 45a:	cf e0       	ldi	r28, 0x0F	; 15
	PORTA &=0xF0;
	
	/* Replace with your application code */
	while (1)
	{
		Data_Input = UART_Rx();
 45c:	0e 94 8b 02 	call	0x516	; 0x516 <UART_Rx>

		switch (Data_Input)
 460:	82 33       	cpi	r24, 0x32	; 50
 462:	e9 f0       	breq	.+58     	; 0x49e <main+0x82>
 464:	28 f4       	brcc	.+10     	; 0x470 <main+0x54>
 466:	80 33       	cpi	r24, 0x30	; 48
 468:	41 f0       	breq	.+16     	; 0x47a <main+0x5e>
 46a:	81 33       	cpi	r24, 0x31	; 49
 46c:	79 f0       	breq	.+30     	; 0x48c <main+0x70>
 46e:	f6 cf       	rjmp	.-20     	; 0x45c <main+0x40>
 470:	83 33       	cpi	r24, 0x33	; 51
 472:	f9 f0       	breq	.+62     	; 0x4b2 <main+0x96>
 474:	84 33       	cpi	r24, 0x34	; 52
 476:	39 f1       	breq	.+78     	; 0x4c6 <main+0xaa>
 478:	f1 cf       	rjmp	.-30     	; 0x45c <main+0x40>
		{
			case '0' :
						LCD_Clear();
 47a:	0e 94 f5 01 	call	0x3ea	; 0x3ea <LCD_Clear>
						LCD_Write_Data(Data_Input);
 47e:	80 e3       	ldi	r24, 0x30	; 48
 480:	0e 94 ad 01 	call	0x35a	; 0x35a <LCD_Write_Data>
						SPI_TRANSMIT(Data_Input);
 484:	80 e3       	ldi	r24, 0x30	; 48
 486:	0e 94 7d 02 	call	0x4fa	; 0x4fa <SPI_TRANSMIT>
						Data_Input = 0;
						break;
 48a:	e8 cf       	rjmp	.-48     	; 0x45c <main+0x40>
			case '1' :
						LCD_Clear();
 48c:	0e 94 f5 01 	call	0x3ea	; 0x3ea <LCD_Clear>
						LCD_Write_Data(Data_Input);
 490:	81 e3       	ldi	r24, 0x31	; 49
 492:	0e 94 ad 01 	call	0x35a	; 0x35a <LCD_Write_Data>
						SPI_TRANSMIT(Data_Input);
 496:	81 e3       	ldi	r24, 0x31	; 49
 498:	0e 94 7d 02 	call	0x4fa	; 0x4fa <SPI_TRANSMIT>
						Data_Input = 0;
						break;
 49c:	df cf       	rjmp	.-66     	; 0x45c <main+0x40>
		 case '2':
		 			LCD_Clear();
 49e:	0e 94 f5 01 	call	0x3ea	; 0x3ea <LCD_Clear>
		 			SET_BIT(PORTA,PA2);
 4a2:	da 9a       	sbi	0x1b, 2	; 27
		 			LCD_Write_Data(Data_Input);
 4a4:	82 e3       	ldi	r24, 0x32	; 50
 4a6:	0e 94 ad 01 	call	0x35a	; 0x35a <LCD_Write_Data>
		 			SPI_TRANSMIT(Data_Input);
 4aa:	82 e3       	ldi	r24, 0x32	; 50
 4ac:	0e 94 7d 02 	call	0x4fa	; 0x4fa <SPI_TRANSMIT>
		 			Data_Input = 0;		
					 break;
 4b0:	d5 cf       	rjmp	.-86     	; 0x45c <main+0x40>
		case '3':
		         			LCD_Clear();
 4b2:	0e 94 f5 01 	call	0x3ea	; 0x3ea <LCD_Clear>
							 PORTA=0x0F;
 4b6:	cb bb       	out	0x1b, r28	; 27
		         			LCD_Write_Data(Data_Input);
 4b8:	83 e3       	ldi	r24, 0x33	; 51
 4ba:	0e 94 ad 01 	call	0x35a	; 0x35a <LCD_Write_Data>
							 SPI_TRANSMIT(Data_Input);
 4be:	83 e3       	ldi	r24, 0x33	; 51
 4c0:	0e 94 7d 02 	call	0x4fa	; 0x4fa <SPI_TRANSMIT>
		         			Data_Input = 0;
							break;
 4c4:	cb cf       	rjmp	.-106    	; 0x45c <main+0x40>
							
		case '4':
		         			LCD_Clear();
 4c6:	0e 94 f5 01 	call	0x3ea	; 0x3ea <LCD_Clear>
							 PORTA=0x00;
 4ca:	1b ba       	out	0x1b, r1	; 27
		         			LCD_Write_Data(Data_Input);
 4cc:	84 e3       	ldi	r24, 0x34	; 52
 4ce:	0e 94 ad 01 	call	0x35a	; 0x35a <LCD_Write_Data>
							 SPI_TRANSMIT(Data_Input);
 4d2:	84 e3       	ldi	r24, 0x34	; 52
 4d4:	0e 94 7d 02 	call	0x4fa	; 0x4fa <SPI_TRANSMIT>
 4d8:	2f ef       	ldi	r18, 0xFF	; 255
 4da:	8e e9       	ldi	r24, 0x9E	; 158
 4dc:	94 e2       	ldi	r25, 0x24	; 36
 4de:	21 50       	subi	r18, 0x01	; 1
 4e0:	80 40       	sbci	r24, 0x00	; 0
 4e2:	90 40       	sbci	r25, 0x00	; 0
 4e4:	e1 f7       	brne	.-8      	; 0x4de <main+0xc2>
 4e6:	00 c0       	rjmp	.+0      	; 0x4e8 <main+0xcc>
 4e8:	00 00       	nop
		         			_delay_ms(3000);
		         			Data_Input = 0;
		         			break;		
 4ea:	b8 cf       	rjmp	.-144    	; 0x45c <main+0x40>

000004ec <SPI_INIT>:
}
Uint8t SPI_RECEIVE(void)
{
	while (GET_BIT(SPSR, SPIF) != 1);
	return SPDR;
}
 4ec:	bd 9a       	sbi	0x17, 5	; 23
 4ee:	be 98       	cbi	0x17, 6	; 23
 4f0:	bf 9a       	sbi	0x17, 7	; 23
 4f2:	bc 9a       	sbi	0x17, 4	; 23
 4f4:	83 e5       	ldi	r24, 0x53	; 83
 4f6:	8d b9       	out	0x0d, r24	; 13
 4f8:	08 95       	ret

000004fa <SPI_TRANSMIT>:
 4fa:	8f b9       	out	0x0f, r24	; 15
 4fc:	77 9b       	sbis	0x0e, 7	; 14
 4fe:	fe cf       	rjmp	.-4      	; 0x4fc <SPI_TRANSMIT+0x2>
 500:	08 95       	ret

00000502 <SPI_SLAVESELECT>:
void SPI_SLAVESELECT(void)
{
	CLR_BIT(PORTB, SS);
 502:	c4 98       	cbi	0x18, 4	; 24
 504:	08 95       	ret

00000506 <UART_Init>:
UART_STATUS UART_Transmit(Uint8t data)
{
	UDR = data;
	while (GET_BIT(UCSRA, TXC) != 1);
	return UART_OK;
}
 506:	88 e1       	ldi	r24, 0x18	; 24
 508:	8a b9       	out	0x0a, r24	; 10
 50a:	86 e8       	ldi	r24, 0x86	; 134
 50c:	80 bd       	out	0x20, r24	; 32
 50e:	83 e3       	ldi	r24, 0x33	; 51
 510:	89 b9       	out	0x09, r24	; 9
 512:	10 bc       	out	0x20, r1	; 32
 514:	08 95       	ret

00000516 <UART_Rx>:
/*Receiving*/
Uint8t UART_Rx(void)
{
	Uint8t data = 0;
	while (GET_BIT(UCSRA, RXC) != 1);
 516:	5f 9b       	sbis	0x0b, 7	; 11
 518:	fe cf       	rjmp	.-4      	; 0x516 <UART_Rx>
	data = UDR;
 51a:	8c b1       	in	r24, 0x0c	; 12
	return data;
}
 51c:	08 95       	ret

0000051e <_exit>:
 51e:	f8 94       	cli

00000520 <__stop_program>:
 520:	ff cf       	rjmp	.-2      	; 0x520 <__stop_program>
